; Function Attrs: mustprogress uwtable
define void @_ZN14duckdb_parquet14SizeStatistics32__set_repetition_level_histogramERKN6duckdb6vectorIlLb1EEE(ptr noundef nonnull align 8 dereferenceable(65) %0, ptr noundef nonnull align 8 dereferenceable(24) %1) local_unnamed_addr #2 align 2 {
  %3 = getelementptr inbounds nuw i8, ptr %0, i64 16
  %4 = tail call noundef nonnull align 8 dereferenceable(24) ptr @_ZNSt6vectorIlSaIlEEaSERKS1_(ptr noundef nonnull align 8 dereferenceable(24) %3, ptr noundef nonnull align 8 dereferenceable(24) %1)
  %5 = getelementptr inbounds nuw i8, ptr %0, i64 64
  %6 = load i8, ptr %5, align 8
  %7 = or i8 %6, 2
  store i8 %7, ptr %5, align 8
  ret void
}